target datalayout = "e-m:e-p270:32:32-p271:32:32-p272:64:64-i64:64-i128:128-f80:128-n8:16:32:64-S128"
target triple = "x86_64-pc-linux-gnu"

%struct.pg_prng_state = type { i64, i64 }
%struct.BlockSamplerData = type { i32, i32, i32, i32, %struct.pg_prng_state }

; Function Attrs: nounwind uwtable
define dso_local void @sampler_random_init_state(i32 noundef %0, ptr noundef %1) #0 {
  %3 = alloca i32, align 4
  %4 = alloca ptr, align 8
  store i32 %0, ptr %3, align 4
  store ptr %1, ptr %4, align 8
  %5 = load ptr, ptr %4, align 8
  %6 = load i32, ptr %3, align 4
  %7 = zext i32 %6 to i64
  call void @pg_prng_seed(ptr noundef %5, i64 noundef %7)
  ret void
}

; Function Attrs: nounwind uwtable
define dso_local i32 @BlockSampler_Init(ptr noundef %0, i32 noundef %1, i32 noundef %2, i32 noundef %3) #0 {
  %5 = alloca ptr, align 8
  %6 = alloca i32, align 4
  %7 = alloca i32, align 4
  %8 = alloca i32, align 4
  store ptr %0, ptr %5, align 8
  store i32 %1, ptr %6, align 4
  store i32 %2, ptr %7, align 4
  store i32 %3, ptr %8, align 4
  %9 = load i32, ptr %6, align 4
  %10 = load ptr, ptr %5, align 8
  %11 = getelementptr inbounds nuw %struct.BlockSamplerData, ptr %10, i32 0, i32 0
  store i32 %9, ptr %11, align 8
  %12 = load i32, ptr %7, align 4
  %13 = load ptr, ptr %5, align 8
  %14 = getelementptr inbounds nuw %struct.BlockSamplerData, ptr %13, i32 0, i32 1
  store i32 %12, ptr %14, align 4
  %15 = load ptr, ptr %5, align 8
  %16 = getelementptr inbounds nuw %struct.BlockSamplerData, ptr %15, i32 0, i32 2
  store i32 0, ptr %16, align 8
  %17 = load ptr, ptr %5, align 8
  %18 = getelementptr inbounds nuw %struct.BlockSamplerData, ptr %17, i32 0, i32 3
  store i32 0, ptr %18, align 4
  %19 = load i32, ptr %8, align 4
  %20 = load ptr, ptr %5, align 8
  %21 = getelementptr inbounds nuw %struct.BlockSamplerData, ptr %20, i32 0, i32 4
  call void @sampler_random_init_state(i32 noundef %19, ptr noundef %21)
  %22 = load ptr, ptr %5, align 8
  %23 = getelementptr inbounds nuw %struct.BlockSamplerData, ptr %22, i32 0, i32 1
  %24 = load i32, ptr %23, align 4
  %25 = load ptr, ptr %5, align 8
  %26 = getelementptr inbounds nuw %struct.BlockSamplerData, ptr %25, i32 0, i32 0
  %27 = load i32, ptr %26, align 8
  %28 = icmp ult i32 %24, %27
  br i1 %28, label %29, label %33

29:                                               ; preds = %4
  %30 = load ptr, ptr %5, align 8
  %31 = getelementptr inbounds nuw %struct.BlockSamplerData, ptr %30, i32 0, i32 1
  %32 = load i32, ptr %31, align 4
  br label %37

33:                                               ; preds = %4
  %34 = load ptr, ptr %5, align 8
  %35 = getelementptr inbounds nuw %struct.BlockSamplerData, ptr %34, i32 0, i32 0
  %36 = load i32, ptr %35, align 8
  br label %37

37:                                               ; preds = %33, %29
  %38 = phi i32 [ %32, %29 ], [ %36, %33 ]
  ret i32 %38
}