; Function Attrs: nounwind uwtable
define dso_local i32 @BlockSampler_Init(ptr noundef initializes((0, 16)) %0, i32 noundef %1, i32 noundef %2, i32 noundef %3) local_unnamed_addr #0 {
  store i32 %1, ptr %0, align 8
  %5 = getelementptr inbounds nuw i8, ptr %0, i64 4
  store i32 %2, ptr %5, align 4
  %6 = getelementptr inbounds nuw i8, ptr %0, i64 8
  store i32 0, ptr %6, align 8
  %7 = getelementptr inbounds nuw i8, ptr %0, i64 12
  store i32 0, ptr %7, align 4
  %8 = getelementptr inbounds nuw i8, ptr %0, i64 16
  %9 = zext i32 %3 to i64
  tail call void @pg_prng_seed(ptr noundef nonnull %8, i64 noundef %9) #6
  %10 = load i32, ptr %5, align 4
  %11 = load i32, ptr %0, align 8
  %. = tail call i32 @llvm.umin.i32(i32 %10, i32 %11)
  ret i32 %.
}